; Function Attrs: mustprogress nofree norecurse nosync nounwind willreturn memory(none) uwtable
define noundef zeroext i1 @_Z10IsLeapYeari(i32 noundef %0) local_unnamed_addr #11 {
  %2 = and i32 %0, 3
  %3 = icmp eq i32 %2, 0
  br i1 %3, label %4, label %9

4:                                                ; preds = %1
  %5 = srem i32 %0, 100
  %.not = icmp eq i32 %5, 0
  br i1 %.not, label %6, label %9

6:                                                ; preds = %4
  %7 = srem i32 %0, 400
  %8 = icmp eq i32 %7, 0
  br label %9

9:                                                ; preds = %4, %6, %1
  %10 = phi i1 [ false, %1 ], [ true, %4 ], [ %8, %6 ]
  ret i1 %10
}